target datalayout = "e-m:e-p270:32:32-p271:32:32-p272:64:64-i64:64-i128:128-f80:128-n8:16:32:64-S128"
target triple = "x86_64-unknown-linux-gnu"

%"class.std::__cxx11::basic_string" = type { %"struct.std::__cxx11::basic_string<char>::_Alloc_hider", i64, %union.anon }
%"struct.std::__cxx11::basic_string<char>::_Alloc_hider" = type { ptr }
%union.anon = type { i64, [8 x i8] }
%"class.proxygen::StructuredHeadersEncoder" = type { %"class.std::__cxx11::basic_string", %"class.boost::iostreams::stream_buffer", %"class.std::basic_ostream" }
%"class.boost::iostreams::stream_buffer" = type { %"class.boost::iostreams::detail::indirect_streambuf.base", [4 x i8] }
%"class.boost::iostreams::detail::indirect_streambuf.base" = type <{ %"class.boost::iostreams::detail::linked_streambuf.base", [4 x i8], %"class.boost::iostreams::detail::optional", ptr, %"class.boost::iostreams::detail::double_object", i64, i32 }>
%"class.boost::iostreams::detail::linked_streambuf.base" = type <{ %"class.std::basic_streambuf", i32 }>
%"class.std::basic_streambuf" = type { ptr, ptr, ptr, ptr, ptr, ptr, ptr, %"class.std::locale" }
%"class.std::locale" = type { ptr }
%"class.boost::iostreams::detail::optional" = type { %"class.boost::iostreams::detail::aligned_storage", i8, [7 x i8] }
%"class.boost::iostreams::detail::aligned_storage" = type { %"union.boost::iostreams::detail::aligned_storage<boost::iostreams::detail::concept_adapter<boost::iostreams::back_insert_device<std::__cxx11::basic_string<char>>>>::dummy_u" }
%"union.boost::iostreams::detail::aligned_storage<boost::iostreams::detail::concept_adapter<boost::iostreams::back_insert_device<std::__cxx11::basic_string<char>>>>::dummy_u" = type { [8 x i8] }
%"class.boost::iostreams::detail::double_object" = type { %"class.boost::iostreams::detail::single_object_holder" }
%"class.boost::iostreams::detail::single_object_holder" = type { %"class.boost::iostreams::detail::basic_buffer" }
%"class.boost::iostreams::detail::basic_buffer" = type { ptr, i64 }
%"class.std::basic_ostream" = type { ptr, %"class.std::basic_ios" }
%"class.std::basic_ios" = type { %"class.std::ios_base", ptr, i8, i8, ptr, ptr, ptr, ptr }
%"class.std::ios_base" = type { ptr, i64, i64, i32, i32, i32, ptr, %"struct.std::ios_base::_Words", [8 x %"struct.std::ios_base::_Words"], i32, ptr, %"class.std::locale" }
%"struct.std::ios_base::_Words" = type { ptr, i64 }
%"class.__gnu_cxx::__normal_iterator.42" = type { ptr }

@.str.17 = private unnamed_addr constant [2 x i8] c"\22\00", align 1
@.str.18 = private unnamed_addr constant [2 x i8] c"\\\00", align 1

; Function Attrs: mustprogress nounwind uwtable
define linkonce_odr noundef nonnull align 8 dereferenceable(8) ptr @_ZNK9__gnu_cxx17__normal_iteratorIPKcNSt7__cxx1112basic_stringIcSt11char_traitsIcESaIcEEEE4baseEv(ptr noundef nonnull align 8 dereferenceable(8) %this) #2 comdat align 2 {
entry:
  %this.addr = alloca ptr, align 8
  store ptr %this, ptr %this.addr, align 8
  %this1 = load ptr, ptr %this.addr, align 8
  %_M_current = getelementptr inbounds %"class.__gnu_cxx::__normal_iterator.42", ptr %this1, i32 0, i32 0
  ret ptr %_M_current
}

; Function Attrs: mustprogress nounwind uwtable
define linkonce_odr noundef nonnull align 8 dereferenceable(8) ptr @_ZN9__gnu_cxx17__normal_iteratorIPKcNSt7__cxx1112basic_stringIcSt11char_traitsIcESaIcEEEEppEv(ptr noundef nonnull align 8 dereferenceable(8) %this) #2 comdat align 2 {
entry:
  %this.addr = alloca ptr, align 8
  store ptr %this, ptr %this.addr, align 8
  %this1 = load ptr, ptr %this.addr, align 8
  %_M_current = getelementptr inbounds %"class.__gnu_cxx::__normal_iterator.42", ptr %this1, i32 0, i32 0
  %0 = load ptr, ptr %_M_current, align 8
  %incdec.ptr = getelementptr inbounds i8, ptr %0, i32 1
  store ptr %incdec.ptr, ptr %_M_current, align 8
  ret ptr %this1
}

; Function Attrs: mustprogress nounwind uwtable
define linkonce_odr noundef nonnull align 1 dereferenceable(1) ptr @_ZNK9__gnu_cxx17__normal_iteratorIPKcNSt7__cxx1112basic_stringIcSt11char_traitsIcESaIcEEEEdeEv(ptr noundef nonnull align 8 dereferenceable(8) %this) #2 comdat align 2 {
entry:
  %this.addr = alloca ptr, align 8
  store ptr %this, ptr %this.addr, align 8
  %this1 = load ptr, ptr %this.addr, align 8
  %_M_current = getelementptr inbounds %"class.__gnu_cxx::__normal_iterator.42", ptr %this1, i32 0, i32 0
  %0 = load ptr, ptr %_M_current, align 8
  ret ptr %0
}

; Function Attrs: mustprogress nounwind uwtable
define linkonce_odr noundef zeroext i1 @_ZN9__gnu_cxxneIPKcNSt7__cxx1112basic_stringIcSt11char_traitsIcESaIcEEEEEbRKNS_17__normal_iteratorIT_T0_EESE_(ptr noundef nonnull align 8 dereferenceable(8) %__lhs, ptr noundef nonnull align 8 dereferenceable(8) %__rhs) #2 comdat {
entry:
  %__lhs.addr = alloca ptr, align 8
  %__rhs.addr = alloca ptr, align 8
  store ptr %__lhs, ptr %__lhs.addr, align 8
  store ptr %__rhs, ptr %__rhs.addr, align 8
  %0 = load ptr, ptr %__lhs.addr, align 8
  %call = call noundef nonnull align 8 dereferenceable(8) ptr @_ZNK9__gnu_cxx17__normal_iteratorIPKcNSt7__cxx1112basic_stringIcSt11char_traitsIcESaIcEEEE4baseEv(ptr noundef nonnull align 8 dereferenceable(8) %0) #4
  %1 = load ptr, ptr %call, align 8
  %2 = load ptr, ptr %__rhs.addr, align 8
  %call1 = call noundef nonnull align 8 dereferenceable(8) ptr @_ZNK9__gnu_cxx17__normal_iteratorIPKcNSt7__cxx1112basic_stringIcSt11char_traitsIcESaIcEEEE4baseEv(ptr noundef nonnull align 8 dereferenceable(8) %2) #4
  %3 = load ptr, ptr %call1, align 8
  %cmp = icmp ne ptr %1, %3
  ret i1 %cmp
}

; Function Attrs: mustprogress uwtable
define noundef zeroext i8 @_ZN8proxygen24StructuredHeadersEncoder12encodeStringERKNSt7__cxx1112basic_stringIcSt11char_traitsIcESaIcEEE(ptr noundef nonnull align 8 dereferenceable(432) %this, ptr noundef nonnull align 8 dereferenceable(32) %input) #0 align 2 {
entry:
  %retval = alloca i8, align 1
  %this.addr = alloca ptr, align 8
  %input.addr = alloca ptr, align 8
  %__range1 = alloca ptr, align 8
  %__begin1 = alloca %"class.__gnu_cxx::__normal_iterator.42", align 8
  %__end1 = alloca %"class.__gnu_cxx::__normal_iterator.42", align 8
  %c = alloca i8, align 1
  store ptr %this, ptr %this.addr, align 8
  store ptr %input, ptr %input.addr, align 8
  %this1 = load ptr, ptr %this.addr, align 8
  %0 = load ptr, ptr %input.addr, align 8
  %call = call noundef zeroext i1 @_ZN8proxygen17StructuredHeaders13isValidStringERKNSt7__cxx1112basic_stringIcSt11char_traitsIcESaIcEEE(ptr noundef nonnull align 8 dereferenceable(32) %0)
  br i1 %call, label %if.end, label %if.then

if.then:                                          ; preds = %entry
  %1 = load ptr, ptr %input.addr, align 8
  %call2 = call noundef zeroext i8 @_ZN8proxygen24StructuredHeadersEncoder17handleEncodeErrorENS_17StructuredHeaders11EncodeErrorERKNSt7__cxx1112basic_stringIcSt11char_traitsIcESaIcEEE(ptr noundef nonnull align 8 dereferenceable(432) %this1, i8 noundef zeroext 3, ptr noundef nonnull align 8 dereferenceable(32) %1)
  store i8 %call2, ptr %retval, align 1
  br label %return

if.end:                                           ; preds = %entry
  %outputStream_ = getelementptr inbounds %"class.proxygen::StructuredHeadersEncoder", ptr %this1, i32 0, i32 2
  %call3 = call noundef nonnull align 8 dereferenceable(8) ptr @_ZStlsISt11char_traitsIcEERSt13basic_ostreamIcT_ES5_PKc(ptr noundef nonnull align 8 dereferenceable(8) %outputStream_, ptr noundef @.str.17)
  %2 = load ptr, ptr %input.addr, align 8
  store ptr %2, ptr %__range1, align 8
  %3 = load ptr, ptr %__range1, align 8
  %call4 = call ptr @_ZNKSt7__cxx1112basic_stringIcSt11char_traitsIcESaIcEE5beginEv(ptr noundef nonnull align 8 dereferenceable(32) %3) #4
  %coerce.dive = getelementptr inbounds %"class.__gnu_cxx::__normal_iterator.42", ptr %__begin1, i32 0, i32 0
  store ptr %call4, ptr %coerce.dive, align 8
  %4 = load ptr, ptr %__range1, align 8
  %call5 = call ptr @_ZNKSt7__cxx1112basic_stringIcSt11char_traitsIcESaIcEE3endEv(ptr noundef nonnull align 8 dereferenceable(32) %4) #4
  %coerce.dive6 = getelementptr inbounds %"class.__gnu_cxx::__normal_iterator.42", ptr %__end1, i32 0, i32 0
  store ptr %call5, ptr %coerce.dive6, align 8
  br label %for.cond

for.cond:                                         ; preds = %for.inc, %if.end
  %call7 = call noundef zeroext i1 @_ZN9__gnu_cxxneIPKcNSt7__cxx1112basic_stringIcSt11char_traitsIcESaIcEEEEEbRKNS_17__normal_iteratorIT_T0_EESE_(ptr noundef nonnull align 8 dereferenceable(8) %__begin1, ptr noundef nonnull align 8 dereferenceable(8) %__end1) #4
  br i1 %call7, label %for.body, label %for.end

for.body:                                         ; preds = %for.cond
  %call8 = call noundef nonnull align 1 dereferenceable(1) ptr @_ZNK9__gnu_cxx17__normal_iteratorIPKcNSt7__cxx1112basic_stringIcSt11char_traitsIcESaIcEEEEdeEv(ptr noundef nonnull align 8 dereferenceable(8) %__begin1) #4
  %5 = load i8, ptr %call8, align 1
  store i8 %5, ptr %c, align 1
  %6 = load i8, ptr %c, align 1
  %conv = sext i8 %6 to i32
  %cmp = icmp eq i32 %conv, 34
  br i1 %cmp, label %if.then11, label %lor.lhs.false

lor.lhs.false:                                    ; preds = %for.body
  %7 = load i8, ptr %c, align 1
  %conv9 = sext i8 %7 to i32
  %cmp10 = icmp eq i32 %conv9, 92
  br i1 %cmp10, label %if.then11, label %if.end14

if.then11:                                        ; preds = %lor.lhs.false, %for.body
  %outputStream_12 = getelementptr inbounds %"class.proxygen::StructuredHeadersEncoder", ptr %this1, i32 0, i32 2
  %call13 = call noundef nonnull align 8 dereferenceable(8) ptr @_ZStlsISt11char_traitsIcEERSt13basic_ostreamIcT_ES5_PKc(ptr noundef nonnull align 8 dereferenceable(8) %outputStream_12, ptr noundef @.str.18)
  br label %if.end14

if.end14:                                         ; preds = %if.then11, %lor.lhs.false
  %outputStream_15 = getelementptr inbounds %"class.proxygen::StructuredHeadersEncoder", ptr %this1, i32 0, i32 2
  %8 = load i8, ptr %c, align 1
  %call16 = call noundef nonnull align 8 dereferenceable(8) ptr @_ZStlsISt11char_traitsIcEERSt13basic_ostreamIcT_ES5_c(ptr noundef nonnull align 8 dereferenceable(8) %outputStream_15, i8 noundef signext %8)
  br label %for.inc

for.inc:                                          ; preds = %if.end14
  %call17 = call noundef nonnull align 8 dereferenceable(8) ptr @_ZN9__gnu_cxx17__normal_iteratorIPKcNSt7__cxx1112basic_stringIcSt11char_traitsIcESaIcEEEEppEv(ptr noundef nonnull align 8 dereferenceable(8) %__begin1) #4
  br label %for.cond

for.end:                                          ; preds = %for.cond
  %outputStream_18 = getelementptr inbounds %"class.proxygen::StructuredHeadersEncoder", ptr %this1, i32 0, i32 2
  %call19 = call noundef nonnull align 8 dereferenceable(8) ptr @_ZStlsISt11char_traitsIcEERSt13basic_ostreamIcT_ES5_PKc(ptr noundef nonnull align 8 dereferenceable(8) %outputStream_18, ptr noundef @.str.17)
  store i8 0, ptr %retval, align 1
  br label %return

return:                                           ; preds = %for.end, %if.then
  %9 = load i8, ptr %retval, align 1
  ret i8 %9
}