; Function Attrs: mustprogress uwtable
define noundef zeroext i8 @_ZN8proxygen24StructuredHeadersEncoder12encodeStringERKNSt7__cxx1112basic_stringIcSt11char_traitsIcESaIcEEE(ptr noundef nonnull align 8 dereferenceable(432) %this, ptr noundef nonnull align 8 dereferenceable(32) %input) local_unnamed_addr #0 align 2 {
entry:
  %call = tail call noundef zeroext i1 @_ZN8proxygen17StructuredHeaders13isValidStringERKNSt7__cxx1112basic_stringIcSt11char_traitsIcESaIcEEE(ptr noundef nonnull align 8 dereferenceable(32) %input)
  br i1 %call, label %if.end, label %if.then

if.then:                                          ; preds = %entry
  %call2 = tail call noundef zeroext i8 @_ZN8proxygen24StructuredHeadersEncoder17handleEncodeErrorENS_17StructuredHeaders11EncodeErrorERKNSt7__cxx1112basic_stringIcSt11char_traitsIcESaIcEEE(ptr nonnull align 8 poison, i8 noundef zeroext 3, ptr noundef nonnull align 8 dereferenceable(32) %input)
  br label %return

if.end:                                           ; preds = %entry
  %outputStream_ = getelementptr inbounds i8, ptr %this, i64 160
  %call3 = tail call noundef nonnull align 8 dereferenceable(8) ptr @_ZStlsISt11char_traitsIcEERSt13basic_ostreamIcT_ES5_PKc(ptr noundef nonnull align 8 dereferenceable(8) %outputStream_, ptr noundef nonnull @.str.17)
  %call4 = tail call ptr @_ZNKSt7__cxx1112basic_stringIcSt11char_traitsIcESaIcEE5beginEv(ptr noundef nonnull align 8 dereferenceable(32) %input) #20
  %call5 = tail call ptr @_ZNKSt7__cxx1112basic_stringIcSt11char_traitsIcESaIcEE3endEv(ptr noundef nonnull align 8 dereferenceable(32) %input) #20
  %cmp.i.not8 = icmp eq ptr %call4, %call5
  br i1 %cmp.i.not8, label %for.end, label %for.body

for.body:                                         ; preds = %if.end, %if.end14
  %__begin1.sroa.0.09 = phi ptr [ %incdec.ptr.i, %if.end14 ], [ %call4, %if.end ]
  %0 = load i8, ptr %__begin1.sroa.0.09, align 1
  switch i8 %0, label %if.end14 [
    i8 92, label %if.then11
    i8 34, label %if.then11
  ]

if.then11:                                        ; preds = %for.body, %for.body
  %call13 = tail call noundef nonnull align 8 dereferenceable(8) ptr @_ZStlsISt11char_traitsIcEERSt13basic_ostreamIcT_ES5_PKc(ptr noundef nonnull align 8 dereferenceable(8) %outputStream_, ptr noundef nonnull @.str.18)
  br label %if.end14

if.end14:                                         ; preds = %for.body, %if.then11
  %call16 = tail call noundef nonnull align 8 dereferenceable(8) ptr @_ZStlsISt11char_traitsIcEERSt13basic_ostreamIcT_ES5_c(ptr noundef nonnull align 8 dereferenceable(8) %outputStream_, i8 noundef signext %0)
  %incdec.ptr.i = getelementptr inbounds i8, ptr %__begin1.sroa.0.09, i64 1
  %cmp.i.not = icmp eq ptr %incdec.ptr.i, %call5
  br i1 %cmp.i.not, label %for.end, label %for.body

for.end:                                          ; preds = %if.end14, %if.end
  %call19 = tail call noundef nonnull align 8 dereferenceable(8) ptr @_ZStlsISt11char_traitsIcEERSt13basic_ostreamIcT_ES5_PKc(ptr noundef nonnull align 8 dereferenceable(8) %outputStream_, ptr noundef nonnull @.str.17)
  br label %return

return:                                           ; preds = %for.end, %if.then
  %retval.0 = phi i8 [ 0, %for.end ], [ 3, %if.then ]
  ret i8 %retval.0
}